; Function Attrs: mustprogress uwtable
define internal fastcc void @_ZSt8_DestroyIPSt8functionIFN7testing15AssertionResultEPNS1_12_GLOBAL__N_122FollowsStrongGuaranteeEEEEvT_S9_(ptr noundef %__first, ptr noundef readnone %__last) unnamed_addr #3 personality ptr @__gxx_personality_v0 {
entry:
  %cmp.not3.i = icmp eq ptr %__first, %__last
  br i1 %cmp.not3.i, label %_ZNSt12_Destroy_auxILb0EE9__destroyIPSt8functionIFN7testing15AssertionResultEPNS3_12_GLOBAL__N_122FollowsStrongGuaranteeEEEEEvT_SB_.exit, label %for.body.i

for.body.i:                                       ; preds = %entry, %_ZSt8_DestroyISt8functionIFN7testing15AssertionResultEPNS1_12_GLOBAL__N_122FollowsStrongGuaranteeEEEEvPT_.exit.i
  %__first.addr.04.i = phi ptr [ %incdec.ptr.i, %_ZSt8_DestroyISt8functionIFN7testing15AssertionResultEPNS1_12_GLOBAL__N_122FollowsStrongGuaranteeEEEEvPT_.exit.i ], [ %__first, %entry ]
  %_M_manager.i.i.i.i = getelementptr inbounds i8, ptr %__first.addr.04.i, i64 16
  %0 = load ptr, ptr %_M_manager.i.i.i.i, align 8
  %tobool.not.i.i.i.i = icmp eq ptr %0, null
  br i1 %tobool.not.i.i.i.i, label %_ZSt8_DestroyISt8functionIFN7testing15AssertionResultEPNS1_12_GLOBAL__N_122FollowsStrongGuaranteeEEEEvPT_.exit.i, label %if.then.i.i.i.i

if.then.i.i.i.i:                                  ; preds = %for.body.i
  %call.i.i.i.i = invoke noundef zeroext i1 %0(ptr noundef nonnull align 8 dereferenceable(16) %__first.addr.04.i, ptr noundef nonnull align 8 dereferenceable(16) %__first.addr.04.i, i32 noundef 3)
          to label %_ZSt8_DestroyISt8functionIFN7testing15AssertionResultEPNS1_12_GLOBAL__N_122FollowsStrongGuaranteeEEEEvPT_.exit.i unwind label %terminate.lpad.i.i.i.i

terminate.lpad.i.i.i.i:                           ; preds = %if.then.i.i.i.i
  %1 = landingpad { ptr, i32 }
          catch ptr null
  %2 = extractvalue { ptr, i32 } %1, 0
  tail call void @__clang_call_terminate(ptr %2) #26
  unreachable

_ZSt8_DestroyISt8functionIFN7testing15AssertionResultEPNS1_12_GLOBAL__N_122FollowsStrongGuaranteeEEEEvPT_.exit.i: ; preds = %if.then.i.i.i.i, %for.body.i
  %incdec.ptr.i = getelementptr inbounds i8, ptr %__first.addr.04.i, i64 32
  %cmp.not.i = icmp eq ptr %incdec.ptr.i, %__last
  br i1 %cmp.not.i, label %_ZNSt12_Destroy_auxILb0EE9__destroyIPSt8functionIFN7testing15AssertionResultEPNS3_12_GLOBAL__N_122FollowsStrongGuaranteeEEEEEvT_SB_.exit, label %for.body.i, !llvm.loop !494

_ZNSt12_Destroy_auxILb0EE9__destroyIPSt8functionIFN7testing15AssertionResultEPNS3_12_GLOBAL__N_122FollowsStrongGuaranteeEEEEEvT_SB_.exit: ; preds = %_ZSt8_DestroyISt8functionIFN7testing15AssertionResultEPNS1_12_GLOBAL__N_122FollowsStrongGuaranteeEEEEvPT_.exit.i, %entry
  ret void
}